ccopy_reg
_reconstructor
p0
(csklearn.pipeline
Pipeline
p1
c__builtin__
object
p2
Ntp3
Rp4
(dp5
S'steps'
p6
(lp7
(S'fsl'
p8
g0
(cpreprocess_data
FeatureSel
p9
g2
Ntp10
Rp11
(dp12
S'pca'
p13
g0
(csklearn.decomposition.pca
PCA
p14
g2
Ntp15
Rp16
(dp17
S'copy'
p18
I01
sS'n_components'
p19
I5
sS'whiten'
p20
I00
sbsS'pca_comp'
p21
I5
sS'k_best'
p22
I5
sS'skb'
p23
g0
(csklearn.feature_selection.univariate_selection
SelectKBest
p24
g2
Ntp25
Rp26
(dp27
S'k'
p28
I5
sS'score_func'
p29
csklearn.feature_selection.univariate_selection
f_classif
p30
sbsbtp31
a(S'sd'
p32
g0
(csklearn.preprocessing.data
StandardScaler
p33
g2
Ntp34
Rp35
(dp36
g18
I01
sS'with_mean'
p37
I01
sS'with_std'
p38
I01
sbtp39
a(S'lvc'
p40
g0
(csklearn.svm.classes
LinearSVC
p41
g2
Ntp42
Rp43
(dp44
S'loss'
p45
S'l2'
p46
sS'C'
p47
F1.0
sS'verbose'
p48
I0
sS'dual'
p49
I01
sS'fit_intercept'
p50
I01
sS'penalty'
p51
g46
sS'multi_class'
p52
S'ovr'
p53
sS'random_state'
p54
NsS'tol'
p55
F0.0001
sS'class_weight'
p56
NsS'intercept_scaling'
p57
I1
sbtp58
asS'named_steps'
p59
(dp60
g8
g11
sg40
g43
sg32
g35
ssb.