(lp0
S'poi'
p1
aS'bonus'
p2
aS'deferred_income'
p3
aS'director_fees'
p4
aS'exercised_stock_options'
p5
aS'expenses'
p6
aS'from_messages'
p7
aS'from_poi_to_this_person'
p8
aS'from_this_person_to_poi'
p9
aS'long_term_incentive'
p10
aS'other'
p11
aS'restricted_stock'
p12
aS'salary'
p13
aS'shared_receipt_with_poi'
p14
aS'to_messages'
p15
aS'total_payments'
p16
aS'total_stock_value'
p17
a.